target datalayout = "e-m:e-p270:32:32-p271:32:32-p272:64:64-i64:64-i128:128-f80:128-n8:16:32:64-S128"
target triple = "x86_64-pc-linux-gnu"

%class.simple_parser = type { ptr, ptr, %class.map, %class.map.0, %class.ref_vector }
%class.map = type { %class.table2map }
%class.table2map = type { %class.core_hashtable }
%class.core_hashtable = type <{ ptr, i32, i32, i32, [4 x i8] }>
%class.map.0 = type { %class.table2map.1 }
%class.table2map.1 = type { %class.core_hashtable.2 }
%class.core_hashtable.2 = type <{ ptr, i32, i32, i32, [4 x i8] }>
%class.ref_vector = type { %class.ref_vector_core }
%class.ref_vector_core = type { %class.ref_manager_wrapper, %class.ptr_vector }
%class.ref_manager_wrapper = type { ptr }
%class.ptr_vector = type { %class.vector }
%class.vector = type { ptr }
%"struct.simple_parser::builtin_op" = type { i32, i32 }
%struct._key_data.41 = type { %class.symbol, %"struct.simple_parser::builtin_op" }
%class.symbol = type { ptr }

; Function Attrs: mustprogress uwtable
define linkonce_odr hidden void @_ZN9table2mapI17default_map_entryI6symbolN13simple_parser10builtin_opEE16symbol_hash_proc14symbol_eq_procE6insertERKS1_OS3_(ptr noundef nonnull align 8 dereferenceable(24) %0, ptr noundef nonnull align 8 dereferenceable(8) %1, ptr noundef nonnull align 4 dereferenceable(8) %2) #4 comdat align 2 {
  %4 = alloca ptr, align 8
  %5 = alloca ptr, align 8
  %6 = alloca ptr, align 8
  %7 = alloca %struct._key_data.41, align 8
  store ptr %0, ptr %4, align 8, !tbaa !24
  store ptr %1, ptr %5, align 8, !tbaa !26
  store ptr %2, ptr %6, align 8, !tbaa !30
  %8 = load ptr, ptr %4, align 8
  %9 = getelementptr inbounds nuw %class.table2map, ptr %8, i32 0, i32 0
  call void @llvm.lifetime.start.p0(i64 16, ptr %7) #3
  %10 = getelementptr inbounds nuw %struct._key_data.41, ptr %7, i32 0, i32 0
  %11 = load ptr, ptr %5, align 8, !tbaa !26
  call void @llvm.memcpy.p0.p0.i64(ptr align 8 %10, ptr align 8 %11, i64 8, i1 false), !tbaa.struct !32
  %12 = getelementptr inbounds nuw %struct._key_data.41, ptr %7, i32 0, i32 1
  %13 = load ptr, ptr %6, align 8, !tbaa !30
  call void @llvm.memcpy.p0.p0.i64(ptr align 8 %12, ptr align 4 %13, i64 8, i1 false), !tbaa.struct !35
  call void @_ZN14core_hashtableI17default_map_entryI6symbolN13simple_parser10builtin_opEEN9table2mapIS4_16symbol_hash_proc14symbol_eq_procE15entry_hash_procENS8_13entry_eq_procEE6insertEO9_key_dataIS1_S3_E(ptr noundef nonnull align 8 dereferenceable(20) %9, ptr noundef nonnull align 8 dereferenceable(16) %7)
  call void @llvm.lifetime.end.p0(i64 16, ptr %7) #3
  ret void
}

; Function Attrs: mustprogress nounwind uwtable
define linkonce_odr hidden void @_ZN13simple_parser10builtin_opC2Eii(ptr noundef nonnull align 4 dereferenceable(8) %0, i32 noundef %1, i32 noundef %2) unnamed_addr #7 comdat align 2 {
  %4 = alloca ptr, align 8
  %5 = alloca i32, align 4
  %6 = alloca i32, align 4
  store ptr %0, ptr %4, align 8, !tbaa !30
  store i32 %1, ptr %5, align 4, !tbaa !28
  store i32 %2, ptr %6, align 4, !tbaa !28
  %7 = load ptr, ptr %4, align 8
  %8 = getelementptr inbounds nuw %"struct.simple_parser::builtin_op", ptr %7, i32 0, i32 0
  %9 = load i32, ptr %5, align 4, !tbaa !28
  store i32 %9, ptr %8, align 4, !tbaa !36
  %10 = getelementptr inbounds nuw %"struct.simple_parser::builtin_op", ptr %7, i32 0, i32 1
  %11 = load i32, ptr %6, align 4, !tbaa !28
  store i32 %11, ptr %10, align 4, !tbaa !38
  ret void
}

; Function Attrs: mustprogress uwtable
define hidden void @_ZN13simple_parser14add_builtin_opERK6symbolii(ptr noundef nonnull align 8 dereferenceable(80) %0, ptr noundef nonnull align 8 dereferenceable(8) %1, i32 noundef %2, i32 noundef %3) #4 align 2 {
  %5 = alloca ptr, align 8
  %6 = alloca ptr, align 8
  %7 = alloca i32, align 4
  %8 = alloca i32, align 4
  %9 = alloca %"struct.simple_parser::builtin_op", align 4
  store ptr %0, ptr %5, align 8, !tbaa !3
  store ptr %1, ptr %6, align 8, !tbaa !26
  store i32 %2, ptr %7, align 4, !tbaa !28
  store i32 %3, ptr %8, align 4, !tbaa !28
  %10 = load ptr, ptr %5, align 8
  %11 = getelementptr inbounds nuw %class.simple_parser, ptr %10, i32 0, i32 2
  %12 = load ptr, ptr %6, align 8, !tbaa !26
  call void @llvm.lifetime.start.p0(i64 8, ptr %9) #3
  %13 = load i32, ptr %7, align 4, !tbaa !28
  %14 = load i32, ptr %8, align 4, !tbaa !28
  call void @_ZN13simple_parser10builtin_opC2Eii(ptr noundef nonnull align 4 dereferenceable(8) %9, i32 noundef %13, i32 noundef %14)
  call void @_ZN9table2mapI17default_map_entryI6symbolN13simple_parser10builtin_opEE16symbol_hash_proc14symbol_eq_procE6insertERKS1_OS3_(ptr noundef nonnull align 8 dereferenceable(24) %11, ptr noundef nonnull align 8 dereferenceable(8) %12, ptr noundef nonnull align 4 dereferenceable(8) %9)
  call void @llvm.lifetime.end.p0(i64 8, ptr %9) #3
  ret void
}